target datalayout = "e-m:e-p270:32:32-p271:32:32-p272:64:64-i64:64-i128:128-f80:128-n8:16:32:64-S128"
target triple = "x86_64-pc-linux-gnu"

%struct.Type_ = type { i32, ptr, ptr, ptr, %union.anon, ptr, ptr, %union.anon.1 }
%union.anon = type { ptr }
%union.anon.1 = type { %struct.TypeFunction }
%struct.TypeFunction = type { ptr, ptr, ptr }
%union.SourceSpan = type { i64 }
%struct.Decl_ = type { ptr, ptr, %union.SourceSpan, i64, %union.anon.3, i32, %union.anon.4, i64, ptr, ptr, ptr, %union.anon.5 }
%union.anon.3 = type { ptr }
%union.anon.4 = type { i16 }
%union.anon.5 = type { %struct.FuncDecl }
%struct.FuncDecl = type { i32, [4 x i8], %struct.Signature_, i32, i32, %union.anon.12 }
%struct.Signature_ = type <{ %struct.CalleeAttributes, i16, i8, i32, i32, [4 x i8], ptr }>
%struct.CalleeAttributes = type { i8 }
%union.anon.12 = type { %struct.anon.13 }
%struct.anon.13 = type { i16, %union.anon.14 }
%union.anon.14 = type { ptr }
%struct.TypeArray = type { ptr, i32 }

@.str = private unnamed_addr constant [36 x i8] c"FATAL ERROR %s -> in %s @ in %s:%d \00", align 1
@.str.2 = private unnamed_addr constant [106 x i8] c"generated/home/dtcxzyw/WorkSpace/Projects/compilers/llvm-opt-benchmark/bench/c3c/c3c/src/compiler/types.c\00", align 1
@.str.17 = private unnamed_addr constant [22 x i8] c"Should be unreachable\00", align 1
@.str.39 = private unnamed_addr constant [5 x i8] c"void\00", align 1
@__func__.type_append_name_to_scratch = private unnamed_addr constant [28 x i8] c"type_append_name_to_scratch\00", align 1
@.str.52 = private unnamed_addr constant [3 x i8] c"[]\00", align 1
@.str.53 = private unnamed_addr constant [4 x i8] c"[*]\00", align 1

; Function Attrs: nounwind uwtable
define internal void @type_append_name_to_scratch(ptr noundef %0) #0 {
  %2 = alloca ptr, align 8
  store ptr %0, ptr %2, align 8
  %3 = load ptr, ptr %2, align 8
  %4 = getelementptr inbounds %struct.Type_, ptr %3, i32 0, i32 1
  %5 = load ptr, ptr %4, align 8
  store ptr %5, ptr %2, align 8
  %6 = load ptr, ptr %2, align 8
  %7 = getelementptr inbounds %struct.Type_, ptr %6, i32 0, i32 0
  %8 = load i32, ptr %7, align 8
  switch i32 %8, label %65 [
    i32 0, label %9
    i32 31, label %9
    i32 30, label %12
    i32 24, label %12
    i32 26, label %12
    i32 27, label %12
    i32 32, label %12
    i32 29, label %12
    i32 28, label %12
    i32 20, label %18
    i32 19, label %18
    i32 23, label %18
    i32 40, label %22
    i32 34, label %33
    i32 35, label %38
    i32 1, label %43
    i32 2, label %43
    i32 3, label %43
    i32 4, label %43
    i32 5, label %43
    i32 6, label %43
    i32 7, label %43
    i32 8, label %43
    i32 9, label %43
    i32 10, label %43
    i32 11, label %43
    i32 12, label %43
    i32 14, label %43
    i32 13, label %43
    i32 15, label %43
    i32 16, label %43
    i32 17, label %43
    i32 22, label %43
    i32 21, label %43
    i32 18, label %43
    i32 37, label %43
    i32 39, label %47
    i32 36, label %47
    i32 38, label %47
    i32 42, label %47
    i32 43, label %47
    i32 41, label %47
    i32 25, label %50
    i32 33, label %55
  ]

9:                                                ; preds = %1, %1
  br label %10

10:                                               ; preds = %9
  call void (ptr, ...) @error_exit(ptr noundef @.str, ptr noundef @.str.17, ptr noundef @__func__.type_append_name_to_scratch, ptr noundef @.str.2, i32 noundef 117) #7
  unreachable

11:                                               ; No predecessors!
  br label %12

12:                                               ; preds = %11, %1, %1, %1, %1, %1, %1, %1
  %13 = load ptr, ptr %2, align 8
  %14 = getelementptr inbounds %struct.Type_, ptr %13, i32 0, i32 7
  %15 = load ptr, ptr %14, align 8
  %16 = getelementptr inbounds %struct.Decl_, ptr %15, i32 0, i32 0
  %17 = load ptr, ptr %16, align 8
  call void @scratch_buffer_append(ptr noundef %17)
  br label %65

18:                                               ; preds = %1, %1, %1
  %19 = load ptr, ptr %2, align 8
  %20 = getelementptr inbounds %struct.Type_, ptr %19, i32 0, i32 7
  %21 = load ptr, ptr %20, align 8
  call void @type_append_name_to_scratch(ptr noundef %21)
  call void @scratch_buffer_append_char(i8 noundef signext 42)
  br label %65

22:                                               ; preds = %1
  %23 = load ptr, ptr %2, align 8
  %24 = getelementptr inbounds %struct.Type_, ptr %23, i32 0, i32 7
  %25 = load ptr, ptr %24, align 8
  %26 = icmp ne ptr %25, null
  br i1 %26, label %27, label %31

27:                                               ; preds = %22
  %28 = load ptr, ptr %2, align 8
  %29 = getelementptr inbounds %struct.Type_, ptr %28, i32 0, i32 7
  %30 = load ptr, ptr %29, align 8
  call void @type_append_name_to_scratch(ptr noundef %30)
  br label %32

31:                                               ; preds = %22
  call void @scratch_buffer_append(ptr noundef @.str.39)
  br label %32

32:                                               ; preds = %31, %27
  call void @scratch_buffer_append_char(i8 noundef signext 33)
  br label %65

33:                                               ; preds = %1
  %34 = load ptr, ptr %2, align 8
  %35 = getelementptr inbounds %struct.Type_, ptr %34, i32 0, i32 7
  %36 = getelementptr inbounds %struct.TypeArray, ptr %35, i32 0, i32 0
  %37 = load ptr, ptr %36, align 8
  call void @type_append_name_to_scratch(ptr noundef %37)
  call void @scratch_buffer_append(ptr noundef @.str.52)
  br label %65

38:                                               ; preds = %1
  %39 = load ptr, ptr %2, align 8
  %40 = getelementptr inbounds %struct.Type_, ptr %39, i32 0, i32 7
  %41 = getelementptr inbounds %struct.TypeArray, ptr %40, i32 0, i32 0
  %42 = load ptr, ptr %41, align 8
  call void @type_append_name_to_scratch(ptr noundef %42)
  call void @scratch_buffer_append(ptr noundef @.str.53)
  br label %65

43:                                               ; preds = %1, %1, %1, %1, %1, %1, %1, %1, %1, %1, %1, %1, %1, %1, %1, %1, %1, %1, %1, %1, %1
  %44 = load ptr, ptr %2, align 8
  %45 = getelementptr inbounds %struct.Type_, ptr %44, i32 0, i32 2
  %46 = load ptr, ptr %45, align 8
  call void @scratch_buffer_append(ptr noundef %46)
  br label %65

47:                                               ; preds = %1, %1, %1, %1, %1, %1
  br label %48

48:                                               ; preds = %47
  call void (ptr, ...) @error_exit(ptr noundef @.str, ptr noundef @.str.17, ptr noundef @__func__.type_append_name_to_scratch, ptr noundef @.str.2, i32 noundef 168) #7
  unreachable

49:                                               ; No predecessors!
  br label %65

50:                                               ; preds = %1
  %51 = load ptr, ptr %2, align 8
  %52 = getelementptr inbounds %struct.Type_, ptr %51, i32 0, i32 7
  %53 = getelementptr inbounds %struct.TypeFunction, ptr %52, i32 0, i32 2
  %54 = load ptr, ptr %53, align 8
  call void @type_append_func_to_scratch(ptr noundef %54)
  br label %65

55:                                               ; preds = %1
  %56 = load ptr, ptr %2, align 8
  %57 = getelementptr inbounds %struct.Type_, ptr %56, i32 0, i32 7
  %58 = getelementptr inbounds %struct.TypeArray, ptr %57, i32 0, i32 0
  %59 = load ptr, ptr %58, align 8
  call void @type_append_name_to_scratch(ptr noundef %59)
  call void @scratch_buffer_append_char(i8 noundef signext 91)
  %60 = load ptr, ptr %2, align 8
  %61 = getelementptr inbounds %struct.Type_, ptr %60, i32 0, i32 7
  %62 = getelementptr inbounds %struct.TypeArray, ptr %61, i32 0, i32 1
  %63 = load i32, ptr %62, align 8
  %64 = zext i32 %63 to i64
  call void @scratch_buffer_append_signed_int(i64 noundef %64)
  call void @scratch_buffer_append_char(i8 noundef signext 93)
  br label %65

65:                                               ; preds = %55, %50, %49, %43, %38, %33, %32, %18, %12, %1
  ret void
}