; Function Attrs: nounwind uwtable
define internal fastcc void @type_append_name_to_scratch(ptr nocapture noundef readonly %0) unnamed_addr #0 {
  %2 = getelementptr inbounds i8, ptr %0, i64 8
  %3 = load ptr, ptr %2, align 8
  %4 = load i32, ptr %3, align 8
  switch i32 %4, label %common.ret12 [
    i32 0, label %5
    i32 31, label %5
    i32 30, label %6
    i32 24, label %6
    i32 26, label %6
    i32 27, label %6
    i32 32, label %6
    i32 29, label %6
    i32 28, label %6
    i32 20, label %10
    i32 19, label %10
    i32 23, label %10
    i32 40, label %13
    i32 34, label %19
    i32 35, label %22
    i32 1, label %25
    i32 2, label %25
    i32 3, label %25
    i32 4, label %25
    i32 5, label %25
    i32 6, label %25
    i32 7, label %25
    i32 8, label %25
    i32 9, label %25
    i32 10, label %25
    i32 11, label %25
    i32 12, label %25
    i32 14, label %25
    i32 13, label %25
    i32 15, label %25
    i32 16, label %25
    i32 17, label %25
    i32 22, label %25
    i32 21, label %25
    i32 18, label %25
    i32 37, label %25
    i32 39, label %28
    i32 36, label %28
    i32 38, label %28
    i32 42, label %28
    i32 43, label %28
    i32 41, label %28
    i32 25, label %29
    i32 33, label %32
  ]

5:                                                ; preds = %1, %1
  tail call void (ptr, ...) @error_exit(ptr noundef nonnull @.str, ptr noundef nonnull @.str.17, ptr noundef nonnull @__func__.type_append_name_to_scratch, ptr noundef nonnull @.str.2, i32 noundef 117) #13
  unreachable

6:                                                ; preds = %1, %1, %1, %1, %1, %1, %1
  %7 = getelementptr inbounds i8, ptr %3, i64 56
  %8 = load ptr, ptr %7, align 8
  %9 = load ptr, ptr %8, align 8
  tail call void @scratch_buffer_append(ptr noundef %9) #14
  br label %common.ret12

common.ret12:                                     ; preds = %29, %25, %18, %6, %1, %32, %22, %19, %10
  ret void

10:                                               ; preds = %1, %1, %1
  %11 = getelementptr inbounds i8, ptr %3, i64 56
  %12 = load ptr, ptr %11, align 8
  tail call fastcc void @type_append_name_to_scratch(ptr noundef %12)
  tail call void @scratch_buffer_append_char(i8 noundef signext 42) #14
  br label %common.ret12

13:                                               ; preds = %1
  %14 = getelementptr inbounds i8, ptr %3, i64 56
  %15 = load ptr, ptr %14, align 8
  %.not = icmp eq ptr %15, null
  br i1 %.not, label %17, label %16

16:                                               ; preds = %13
  tail call fastcc void @type_append_name_to_scratch(ptr noundef nonnull %15)
  br label %18

17:                                               ; preds = %13
  tail call void @scratch_buffer_append(ptr noundef nonnull @.str.39) #14
  br label %18

18:                                               ; preds = %17, %16
  tail call void @scratch_buffer_append_char(i8 noundef signext 33) #14
  br label %common.ret12

19:                                               ; preds = %1
  %20 = getelementptr inbounds i8, ptr %3, i64 56
  %21 = load ptr, ptr %20, align 8
  tail call fastcc void @type_append_name_to_scratch(ptr noundef %21)
  tail call void @scratch_buffer_append(ptr noundef nonnull @.str.52) #14
  br label %common.ret12

22:                                               ; preds = %1
  %23 = getelementptr inbounds i8, ptr %3, i64 56
  %24 = load ptr, ptr %23, align 8
  tail call fastcc void @type_append_name_to_scratch(ptr noundef %24)
  tail call void @scratch_buffer_append(ptr noundef nonnull @.str.53) #14
  br label %common.ret12

25:                                               ; preds = %1, %1, %1, %1, %1, %1, %1, %1, %1, %1, %1, %1, %1, %1, %1, %1, %1, %1, %1, %1, %1
  %26 = getelementptr inbounds i8, ptr %3, i64 16
  %27 = load ptr, ptr %26, align 8
  tail call void @scratch_buffer_append(ptr noundef %27) #14
  br label %common.ret12

28:                                               ; preds = %1, %1, %1, %1, %1, %1
  tail call void (ptr, ...) @error_exit(ptr noundef nonnull @.str, ptr noundef nonnull @.str.17, ptr noundef nonnull @__func__.type_append_name_to_scratch, ptr noundef nonnull @.str.2, i32 noundef 168) #13
  unreachable

29:                                               ; preds = %1
  %30 = getelementptr inbounds i8, ptr %3, i64 72
  %31 = load ptr, ptr %30, align 8
  tail call fastcc void @type_append_func_to_scratch(ptr noundef %31)
  br label %common.ret12

32:                                               ; preds = %1
  %33 = getelementptr inbounds i8, ptr %3, i64 56
  %34 = load ptr, ptr %33, align 8
  tail call fastcc void @type_append_name_to_scratch(ptr noundef %34)
  tail call void @scratch_buffer_append_char(i8 noundef signext 91) #14
  %35 = getelementptr inbounds i8, ptr %3, i64 64
  %36 = load i32, ptr %35, align 8
  %37 = zext i32 %36 to i64
  tail call void @scratch_buffer_append_signed_int(i64 noundef %37) #14
  tail call void @scratch_buffer_append_char(i8 noundef signext 93) #14
  br label %common.ret12
}